; Function Attrs: mustprogress uwtable
define hidden noundef i32 @_ZN4ncnn7Reshape10load_paramERKNS_9ParamDictE(ptr noundef nonnull align 8 captures(none) dereferenceable(232) initializes((208, 232)) %0, ptr noundef nonnull align 8 dereferenceable(16) %1) unnamed_addr #2 align 2 {
  %3 = tail call noundef i32 @_ZNK4ncnn9ParamDict3getEii(ptr noundef nonnull align 8 dereferenceable(16) %1, i32 noundef 0, i32 noundef -233)
  %4 = getelementptr inbounds nuw i8, ptr %0, i64 208
  store i32 %3, ptr %4, align 8, !tbaa !4
  %5 = tail call noundef i32 @_ZNK4ncnn9ParamDict3getEii(ptr noundef nonnull align 8 dereferenceable(16) %1, i32 noundef 1, i32 noundef -233)
  %6 = getelementptr inbounds nuw i8, ptr %0, i64 212
  store i32 %5, ptr %6, align 4, !tbaa !26
  %7 = tail call noundef i32 @_ZNK4ncnn9ParamDict3getEii(ptr noundef nonnull align 8 dereferenceable(16) %1, i32 noundef 11, i32 noundef -233)
  %8 = getelementptr inbounds nuw i8, ptr %0, i64 216
  store i32 %7, ptr %8, align 8, !tbaa !27
  %9 = tail call noundef i32 @_ZNK4ncnn9ParamDict3getEii(ptr noundef nonnull align 8 dereferenceable(16) %1, i32 noundef 2, i32 noundef -233)
  %10 = getelementptr inbounds nuw i8, ptr %0, i64 220
  store i32 %9, ptr %10, align 4, !tbaa !28
  %11 = tail call noundef i32 @_ZNK4ncnn9ParamDict3getEii(ptr noundef nonnull align 8 dereferenceable(16) %1, i32 noundef 3, i32 noundef 0)
  %12 = getelementptr inbounds nuw i8, ptr %0, i64 224
  store i32 %11, ptr %12, align 8, !tbaa !29
  %13 = getelementptr inbounds nuw i8, ptr %0, i64 228
  %14 = load i32, ptr %8, align 8, !tbaa !27
  %15 = icmp eq i32 %14, -233
  %spec.store.select = select i1 %15, i32 3, i32 4
  %16 = load i32, ptr %10, align 4, !tbaa !28
  %17 = icmp eq i32 %16, -233
  %spec.store.select6 = select i1 %17, i32 2, i32 %spec.store.select
  %18 = load i32, ptr %6, align 4, !tbaa !26
  %19 = icmp eq i32 %18, -233
  %spec.store.select7 = select i1 %19, i32 1, i32 %spec.store.select6
  %20 = load i32, ptr %4, align 8, !tbaa !4
  %21 = icmp eq i32 %20, -233
  %spec.store.select8 = select i1 %21, i32 0, i32 %spec.store.select7
  store i32 %spec.store.select8, ptr %13, align 4
  ret i32 0
}